target datalayout = "e-m:e-p270:32:32-p271:32:32-p272:64:64-i64:64-i128:128-f80:128-n8:16:32:64-S128"
target triple = "x86_64-pc-linux-gnu"

%struct._address = type { i32, i32, ptr, ptr }
%struct.osmux_stream_key = type { %struct._address, %struct._address, i32, i32, i32, i32 }

; Function Attrs: inlinehint nounwind null_pointer_is_valid sspstrong uwtable
define internal i32 @add_address_to_hash(i32 noundef %0, ptr noundef %1) #2 {
  %3 = alloca i32, align 4
  %4 = alloca ptr, align 8
  %5 = alloca ptr, align 8
  %6 = alloca i32, align 4
  store i32 %0, ptr %3, align 4
  store ptr %1, ptr %4, align 8
  call void @llvm.lifetime.start.p0(i64 8, ptr %5) #13
  %7 = load ptr, ptr %4, align 8
  %8 = getelementptr inbounds nuw %struct._address, ptr %7, i32 0, i32 2
  %9 = load ptr, ptr %8, align 8
  store ptr %9, ptr %5, align 8
  call void @llvm.lifetime.start.p0(i64 4, ptr %6) #13
  store i32 0, ptr %6, align 4
  br label %10

10:                                               ; preds = %33, %2
  %11 = load i32, ptr %6, align 4
  %12 = load ptr, ptr %4, align 8
  %13 = getelementptr inbounds nuw %struct._address, ptr %12, i32 0, i32 1
  %14 = load i32, ptr %13, align 4
  %15 = icmp slt i32 %11, %14
  br i1 %15, label %16, label %36

16:                                               ; preds = %10
  %17 = load ptr, ptr %5, align 8
  %18 = load i32, ptr %6, align 4
  %19 = sext i32 %18 to i64
  %20 = getelementptr i8, ptr %17, i64 %19
  %21 = load i8, ptr %20, align 1
  %22 = zext i8 %21 to i32
  %23 = load i32, ptr %3, align 4
  %24 = add i32 %23, %22
  store i32 %24, ptr %3, align 4
  %25 = load i32, ptr %3, align 4
  %26 = shl i32 %25, 10
  %27 = load i32, ptr %3, align 4
  %28 = add i32 %27, %26
  store i32 %28, ptr %3, align 4
  %29 = load i32, ptr %3, align 4
  %30 = lshr i32 %29, 6
  %31 = load i32, ptr %3, align 4
  %32 = xor i32 %31, %30
  store i32 %32, ptr %3, align 4
  br label %33

33:                                               ; preds = %16
  %34 = load i32, ptr %6, align 4
  %35 = add i32 %34, 1
  store i32 %35, ptr %6, align 4
  br label %10, !llvm.loop !11

36:                                               ; preds = %10
  %37 = load i32, ptr %3, align 4
  call void @llvm.lifetime.end.p0(i64 4, ptr %6) #13
  call void @llvm.lifetime.end.p0(i64 8, ptr %5) #13
  ret i32 %37
}

; Function Attrs: null_pointer_is_valid sspstrong uwtable
define internal i32 @osmux_hash(ptr noundef %0) #0 {
  %2 = alloca ptr, align 8
  %3 = alloca ptr, align 8
  %4 = alloca i32, align 4
  %5 = alloca %struct._address, align 8
  store ptr %0, ptr %2, align 8
  call void @llvm.lifetime.start.p0(i64 8, ptr %3) #13
  %6 = load ptr, ptr %2, align 8
  store ptr %6, ptr %3, align 8
  call void @llvm.lifetime.start.p0(i64 4, ptr %4) #13
  call void @llvm.lifetime.start.p0(i64 24, ptr %5) #13
  store i32 0, ptr %4, align 4
  %7 = getelementptr inbounds nuw %struct._address, ptr %5, i32 0, i32 1
  store i32 4, ptr %7, align 4
  %8 = load i32, ptr %4, align 4
  %9 = load ptr, ptr %3, align 8
  %10 = getelementptr inbounds nuw %struct.osmux_stream_key, ptr %9, i32 0, i32 0
  %11 = call i32 @add_address_to_hash(i32 noundef %8, ptr noundef %10)
  store i32 %11, ptr %4, align 4
  %12 = load ptr, ptr %3, align 8
  %13 = getelementptr inbounds nuw %struct.osmux_stream_key, ptr %12, i32 0, i32 3
  %14 = getelementptr inbounds nuw %struct._address, ptr %5, i32 0, i32 2
  store ptr %13, ptr %14, align 8
  %15 = load i32, ptr %4, align 4
  %16 = call i32 @add_address_to_hash(i32 noundef %15, ptr noundef %5)
  store i32 %16, ptr %4, align 4
  %17 = load i32, ptr %4, align 4
  %18 = load ptr, ptr %3, align 8
  %19 = getelementptr inbounds nuw %struct.osmux_stream_key, ptr %18, i32 0, i32 1
  %20 = call i32 @add_address_to_hash(i32 noundef %17, ptr noundef %19)
  store i32 %20, ptr %4, align 4
  %21 = load ptr, ptr %3, align 8
  %22 = getelementptr inbounds nuw %struct.osmux_stream_key, ptr %21, i32 0, i32 4
  %23 = getelementptr inbounds nuw %struct._address, ptr %5, i32 0, i32 2
  store ptr %22, ptr %23, align 8
  %24 = load i32, ptr %4, align 4
  %25 = call i32 @add_address_to_hash(i32 noundef %24, ptr noundef %5)
  store i32 %25, ptr %4, align 4
  %26 = load ptr, ptr %3, align 8
  %27 = getelementptr inbounds nuw %struct.osmux_stream_key, ptr %26, i32 0, i32 5
  %28 = getelementptr inbounds nuw %struct._address, ptr %5, i32 0, i32 2
  store ptr %27, ptr %28, align 8
  %29 = load i32, ptr %4, align 4
  %30 = call i32 @add_address_to_hash(i32 noundef %29, ptr noundef %5)
  store i32 %30, ptr %4, align 4
  %31 = load i32, ptr %4, align 4
  %32 = shl i32 %31, 3
  %33 = load i32, ptr %4, align 4
  %34 = add i32 %33, %32
  store i32 %34, ptr %4, align 4
  %35 = load i32, ptr %4, align 4
  %36 = lshr i32 %35, 11
  %37 = load i32, ptr %4, align 4
  %38 = xor i32 %37, %36
  store i32 %38, ptr %4, align 4
  %39 = load i32, ptr %4, align 4
  %40 = shl i32 %39, 15
  %41 = load i32, ptr %4, align 4
  %42 = add i32 %41, %40
  store i32 %42, ptr %4, align 4
  %43 = load i32, ptr %4, align 4
  call void @llvm.lifetime.end.p0(i64 24, ptr %5) #13
  call void @llvm.lifetime.end.p0(i64 4, ptr %4) #13
  call void @llvm.lifetime.end.p0(i64 8, ptr %3) #13
  ret i32 %43
}