; Function Attrs: nofree norecurse nosync nounwind null_pointer_is_valid sspstrong memory(read, inaccessiblemem: none) uwtable
define internal i32 @osmux_hash(ptr noundef readonly captures(none) %0) #3 {
  %2 = getelementptr inbounds nuw i8, ptr %0, i64 8
  %3 = load ptr, ptr %2, align 8
  %4 = getelementptr inbounds nuw i8, ptr %0, i64 4
  %5 = load i32, ptr %4, align 4
  %6 = icmp sgt i32 %5, 0
  br i1 %6, label %.lr.ph.preheader.i, label %.lr.ph.preheader.i18

.lr.ph.preheader.i:                               ; preds = %1
  %wide.trip.count.i = zext nneg i32 %5 to i64
  br label %.lr.ph.i

.lr.ph.i:                                         ; preds = %.lr.ph.i, %.lr.ph.preheader.i
  %indvars.iv.i = phi i64 [ 0, %.lr.ph.preheader.i ], [ %indvars.iv.next.i, %.lr.ph.i ]
  %.01112.i = phi i32 [ 0, %.lr.ph.preheader.i ], [ %13, %.lr.ph.i ]
  %7 = getelementptr i8, ptr %3, i64 %indvars.iv.i
  %8 = load i8, ptr %7, align 1
  %9 = zext i8 %8 to i32
  %10 = add i32 %.01112.i, %9
  %11 = mul i32 %10, 1025
  %12 = lshr i32 %11, 6
  %13 = xor i32 %12, %11
  %indvars.iv.next.i = add nuw nsw i64 %indvars.iv.i, 1
  %exitcond.not.i = icmp eq i64 %indvars.iv.next.i, %wide.trip.count.i
  br i1 %exitcond.not.i, label %.lr.ph.preheader.i18, label %.lr.ph.i, !llvm.loop !6

.lr.ph.preheader.i18:                             ; preds = %.lr.ph.i, %1
  %.011.lcssa.i = phi i32 [ 0, %1 ], [ %13, %.lr.ph.i ]
  %14 = getelementptr inbounds nuw i8, ptr %0, i64 52
  br label %.lr.ph.i20

.lr.ph.i20:                                       ; preds = %.lr.ph.i20, %.lr.ph.preheader.i18
  %indvars.iv.i21 = phi i64 [ 0, %.lr.ph.preheader.i18 ], [ %indvars.iv.next.i23, %.lr.ph.i20 ]
  %.01112.i22 = phi i32 [ %.011.lcssa.i, %.lr.ph.preheader.i18 ], [ %21, %.lr.ph.i20 ]
  %15 = getelementptr i8, ptr %14, i64 %indvars.iv.i21
  %16 = load i8, ptr %15, align 1
  %17 = zext i8 %16 to i32
  %18 = add i32 %.01112.i22, %17
  %19 = mul i32 %18, 1025
  %20 = lshr i32 %19, 6
  %21 = xor i32 %20, %19
  %indvars.iv.next.i23 = add nuw nsw i64 %indvars.iv.i21, 1
  %exitcond.not.i24 = icmp eq i64 %indvars.iv.next.i23, 4
  br i1 %exitcond.not.i24, label %add_address_to_hash.exit25, label %.lr.ph.i20, !llvm.loop !6

add_address_to_hash.exit25:                       ; preds = %.lr.ph.i20
  %22 = getelementptr inbounds nuw i8, ptr %0, i64 32
  %23 = load ptr, ptr %22, align 8
  %24 = getelementptr inbounds nuw i8, ptr %0, i64 28
  %25 = load i32, ptr %24, align 4
  %26 = icmp sgt i32 %25, 0
  br i1 %26, label %.lr.ph.preheader.i27, label %.lr.ph.preheader.i36

.lr.ph.preheader.i27:                             ; preds = %add_address_to_hash.exit25
  %wide.trip.count.i28 = zext nneg i32 %25 to i64
  br label %.lr.ph.i29

.lr.ph.i29:                                       ; preds = %.lr.ph.i29, %.lr.ph.preheader.i27
  %indvars.iv.i30 = phi i64 [ 0, %.lr.ph.preheader.i27 ], [ %indvars.iv.next.i32, %.lr.ph.i29 ]
  %.01112.i31 = phi i32 [ %21, %.lr.ph.preheader.i27 ], [ %33, %.lr.ph.i29 ]
  %27 = getelementptr i8, ptr %23, i64 %indvars.iv.i30
  %28 = load i8, ptr %27, align 1
  %29 = zext i8 %28 to i32
  %30 = add i32 %.01112.i31, %29
  %31 = mul i32 %30, 1025
  %32 = lshr i32 %31, 6
  %33 = xor i32 %32, %31
  %indvars.iv.next.i32 = add nuw nsw i64 %indvars.iv.i30, 1
  %exitcond.not.i33 = icmp eq i64 %indvars.iv.next.i32, %wide.trip.count.i28
  br i1 %exitcond.not.i33, label %.lr.ph.preheader.i36, label %.lr.ph.i29, !llvm.loop !6

.lr.ph.preheader.i36:                             ; preds = %.lr.ph.i29, %add_address_to_hash.exit25
  %.011.lcssa.i26 = phi i32 [ %21, %add_address_to_hash.exit25 ], [ %33, %.lr.ph.i29 ]
  %34 = getelementptr inbounds nuw i8, ptr %0, i64 56
  br label %.lr.ph.i38

.lr.ph.i38:                                       ; preds = %.lr.ph.i38, %.lr.ph.preheader.i36
  %indvars.iv.i39 = phi i64 [ 0, %.lr.ph.preheader.i36 ], [ %indvars.iv.next.i41, %.lr.ph.i38 ]
  %.01112.i40 = phi i32 [ %.011.lcssa.i26, %.lr.ph.preheader.i36 ], [ %41, %.lr.ph.i38 ]
  %35 = getelementptr i8, ptr %34, i64 %indvars.iv.i39
  %36 = load i8, ptr %35, align 1
  %37 = zext i8 %36 to i32
  %38 = add i32 %.01112.i40, %37
  %39 = mul i32 %38, 1025
  %40 = lshr i32 %39, 6
  %41 = xor i32 %40, %39
  %indvars.iv.next.i41 = add nuw nsw i64 %indvars.iv.i39, 1
  %exitcond.not.i42 = icmp eq i64 %indvars.iv.next.i41, 4
  br i1 %exitcond.not.i42, label %.lr.ph.preheader.i45, label %.lr.ph.i38, !llvm.loop !6

.lr.ph.preheader.i45:                             ; preds = %.lr.ph.i38
  %42 = getelementptr inbounds nuw i8, ptr %0, i64 60
  br label %.lr.ph.i47

.lr.ph.i47:                                       ; preds = %.lr.ph.i47, %.lr.ph.preheader.i45
  %indvars.iv.i48 = phi i64 [ 0, %.lr.ph.preheader.i45 ], [ %indvars.iv.next.i50, %.lr.ph.i47 ]
  %.01112.i49 = phi i32 [ %41, %.lr.ph.preheader.i45 ], [ %49, %.lr.ph.i47 ]
  %43 = getelementptr i8, ptr %42, i64 %indvars.iv.i48
  %44 = load i8, ptr %43, align 1
  %45 = zext i8 %44 to i32
  %46 = add i32 %.01112.i49, %45
  %47 = mul i32 %46, 1025
  %48 = lshr i32 %47, 6
  %49 = xor i32 %48, %47
  %indvars.iv.next.i50 = add nuw nsw i64 %indvars.iv.i48, 1
  %exitcond.not.i51 = icmp eq i64 %indvars.iv.next.i50, 4
  br i1 %exitcond.not.i51, label %add_address_to_hash.exit52, label %.lr.ph.i47, !llvm.loop !6

add_address_to_hash.exit52:                       ; preds = %.lr.ph.i47
  %50 = mul i32 %49, 9
  %51 = lshr i32 %50, 11
  %52 = xor i32 %51, %50
  %53 = mul i32 %52, 32769
  ret i32 %53
}